target datalayout = "e-m:e-p270:32:32-p271:32:32-p272:64:64-i64:64-i128:128-f80:128-n8:16:32:64-S128"
target triple = "x86_64-unknown-linux-gnu"

; Function Attrs: mustprogress nounwind uwtable
define linkonce_odr hidden noundef float @_ZN19OpenColorIO_v2_4dev5lerpfEfff(float noundef %a, float noundef %b, float noundef %z) #5 comdat {
entry:
  %a.addr = alloca float, align 4
  %b.addr = alloca float, align 4
  %z.addr = alloca float, align 4
  store float %a, ptr %a.addr, align 4
  store float %b, ptr %b.addr, align 4
  store float %z, ptr %z.addr, align 4
  %0 = load float, ptr %b.addr, align 4
  %1 = load float, ptr %a.addr, align 4
  %sub = fsub float %0, %1
  %2 = load float, ptr %z.addr, align 4
  %3 = load float, ptr %a.addr, align 4
  %4 = call float @llvm.fmuladd.f32(float %sub, float %2, float %3)
  ret float %4
}

; Function Attrs: mustprogress nounwind uwtable
define linkonce_odr noundef nonnull align 4 dereferenceable(4) ptr @_ZSt3minIiERKT_S2_S2_(ptr noundef nonnull align 4 dereferenceable(4) %__a, ptr noundef nonnull align 4 dereferenceable(4) %__b) #5 comdat {
entry:
  %retval = alloca ptr, align 8
  %__a.addr = alloca ptr, align 8
  %__b.addr = alloca ptr, align 8
  store ptr %__a, ptr %__a.addr, align 8
  store ptr %__b, ptr %__b.addr, align 8
  %0 = load ptr, ptr %__b.addr, align 8
  %1 = load i32, ptr %0, align 4
  %2 = load ptr, ptr %__a.addr, align 8
  %3 = load i32, ptr %2, align 4
  %cmp = icmp slt i32 %1, %3
  br i1 %cmp, label %if.then, label %if.end

if.then:                                          ; preds = %entry
  %4 = load ptr, ptr %__b.addr, align 8
  store ptr %4, ptr %retval, align 8
  br label %return

if.end:                                           ; preds = %entry
  %5 = load ptr, ptr %__a.addr, align 8
  store ptr %5, ptr %retval, align 8
  br label %return

return:                                           ; preds = %if.end, %if.then
  %6 = load ptr, ptr %retval, align 8
  ret ptr %6
}

; Function Attrs: mustprogress uwtable
define hidden void @_ZN19OpenColorIO_v2_4dev24GenerateLinearScaleLut1DEPfiiff(ptr noundef %img, i32 noundef %numElements, i32 noundef %numChannels, float noundef %start, float noundef %end) #6 {
entry:
  %img.addr = alloca ptr, align 8
  %numElements.addr = alloca i32, align 4
  %numChannels.addr = alloca i32, align 4
  %start.addr = alloca float, align 4
  %end.addr = alloca float, align 4
  %numChannelsToFill = alloca i32, align 4
  %ref.tmp = alloca i32, align 4
  %i = alloca i32, align 4
  %x = alloca float, align 4
  %val = alloca float, align 4
  %c = alloca i32, align 4
  store ptr %img, ptr %img.addr, align 8
  store i32 %numElements, ptr %numElements.addr, align 4
  store i32 %numChannels, ptr %numChannels.addr, align 4
  store float %start, ptr %start.addr, align 4
  store float %end, ptr %end.addr, align 4
  %0 = load ptr, ptr %img.addr, align 8
  %tobool = icmp ne ptr %0, null
  br i1 %tobool, label %if.end, label %if.then

if.then:                                          ; preds = %entry
  br label %for.end9

if.end:                                           ; preds = %entry
  store i32 3, ptr %ref.tmp, align 4
  %call = call noundef nonnull align 4 dereferenceable(4) ptr @_ZSt3minIiERKT_S2_S2_(ptr noundef nonnull align 4 dereferenceable(4) %ref.tmp, ptr noundef nonnull align 4 dereferenceable(4) %numChannels.addr)
  %1 = load i32, ptr %call, align 4
  store i32 %1, ptr %numChannelsToFill, align 4
  store i32 0, ptr %i, align 4
  br label %for.cond

for.cond:                                         ; preds = %for.inc7, %if.end
  %2 = load i32, ptr %i, align 4
  %3 = load i32, ptr %numElements.addr, align 4
  %cmp = icmp slt i32 %2, %3
  br i1 %cmp, label %for.body, label %for.end9

for.body:                                         ; preds = %for.cond
  %4 = load i32, ptr %i, align 4
  %conv = sitofp i32 %4 to double
  %5 = load i32, ptr %numElements.addr, align 4
  %sub = sub nsw i32 %5, 1
  %conv1 = sitofp i32 %sub to double
  %div = fdiv double %conv, %conv1
  %conv2 = fptrunc double %div to float
  store float %conv2, ptr %x, align 4
  %6 = load float, ptr %start.addr, align 4
  %7 = load float, ptr %end.addr, align 4
  %8 = load float, ptr %x, align 4
  %call3 = call noundef float @_ZN19OpenColorIO_v2_4dev5lerpfEfff(float noundef %6, float noundef %7, float noundef %8)
  store float %call3, ptr %val, align 4
  store i32 0, ptr %c, align 4
  br label %for.cond4

for.cond4:                                        ; preds = %for.inc, %for.body
  %9 = load i32, ptr %c, align 4
  %10 = load i32, ptr %numChannelsToFill, align 4
  %cmp5 = icmp slt i32 %9, %10
  br i1 %cmp5, label %for.body6, label %for.end

for.body6:                                        ; preds = %for.cond4
  %11 = load float, ptr %val, align 4
  %12 = load ptr, ptr %img.addr, align 8
  %13 = load i32, ptr %numChannels.addr, align 4
  %14 = load i32, ptr %i, align 4
  %mul = mul nsw i32 %13, %14
  %15 = load i32, ptr %c, align 4
  %add = add nsw i32 %mul, %15
  %idxprom = sext i32 %add to i64
  %arrayidx = getelementptr inbounds float, ptr %12, i64 %idxprom
  store float %11, ptr %arrayidx, align 4
  br label %for.inc

for.inc:                                          ; preds = %for.body6
  %16 = load i32, ptr %c, align 4
  %inc = add nsw i32 %16, 1
  store i32 %inc, ptr %c, align 4
  br label %for.cond4, !llvm.loop !7

for.end:                                          ; preds = %for.cond4
  br label %for.inc7

for.inc7:                                         ; preds = %for.end
  %17 = load i32, ptr %i, align 4
  %inc8 = add nsw i32 %17, 1
  store i32 %inc8, ptr %i, align 4
  br label %for.cond, !llvm.loop !8

for.end9:                                         ; preds = %for.cond, %if.then
  ret void
}