; Function Attrs: mustprogress nofree norecurse nosync nounwind memory(argmem: write) uwtable
define hidden void @_ZN19OpenColorIO_v2_4dev24GenerateLinearScaleLut1DEPfiiff(ptr noundef writeonly %img, i32 noundef %numElements, i32 noundef %numChannels, float noundef %start, float noundef %end) local_unnamed_addr #5 {
entry:
  %tobool.not = icmp eq ptr %img, null
  br i1 %tobool.not, label %for.end9, label %if.end

if.end:                                           ; preds = %entry
  %.sroa.speculated = tail call i32 @llvm.smin.i32(i32 %numChannels, i32 3)
  %cmp13 = icmp sgt i32 %numElements, 0
  br i1 %cmp13, label %for.body.lr.ph, label %for.end9

for.body.lr.ph:                                   ; preds = %if.end
  %sub = add nsw i32 %numElements, -1
  %conv1 = sitofp i32 %sub to double
  %sub.i = fsub float %end, %start
  %cmp511 = icmp sgt i32 %numChannels, 0
  br i1 %cmp511, label %for.body.us.preheader, label %for.end9

for.body.us.preheader:                            ; preds = %for.body.lr.ph
  %wide.trip.count22 = zext nneg i32 %numElements to i64
  %wide.trip.count = zext nneg i32 %.sroa.speculated to i64
  br label %for.body.us

for.body.us:                                      ; preds = %for.body.us.preheader, %for.cond4.for.inc7_crit_edge.us
  %indvars.iv18 = phi i64 [ 0, %for.body.us.preheader ], [ %indvars.iv.next19, %for.cond4.for.inc7_crit_edge.us ]
  %0 = trunc i64 %indvars.iv18 to i32
  %conv.us = sitofp i32 %0 to double
  %div.us = fdiv double %conv.us, %conv1
  %conv2.us = fptrunc double %div.us to float
  %1 = tail call noundef float @llvm.fmuladd.f32(float %sub.i, float %conv2.us, float %start)
  %2 = trunc i64 %indvars.iv18 to i32
  %3 = mul i32 %2, %numChannels
  %4 = zext i32 %3 to i64
  %invariant.gep = getelementptr float, ptr %img, i64 %4
  br label %for.body6.us

for.body6.us:                                     ; preds = %for.body.us, %for.body6.us
  %indvars.iv = phi i64 [ 0, %for.body.us ], [ %indvars.iv.next, %for.body6.us ]
  %gep = getelementptr float, ptr %invariant.gep, i64 %indvars.iv
  store float %1, ptr %gep, align 4
  %indvars.iv.next = add nuw nsw i64 %indvars.iv, 1
  %exitcond.not = icmp eq i64 %indvars.iv.next, %wide.trip.count
  br i1 %exitcond.not, label %for.cond4.for.inc7_crit_edge.us, label %for.body6.us, !llvm.loop !7

for.cond4.for.inc7_crit_edge.us:                  ; preds = %for.body6.us
  %indvars.iv.next19 = add nuw nsw i64 %indvars.iv18, 1
  %exitcond23.not = icmp eq i64 %indvars.iv.next19, %wide.trip.count22
  br i1 %exitcond23.not, label %for.end9, label %for.body.us, !llvm.loop !8

for.end9:                                         ; preds = %for.cond4.for.inc7_crit_edge.us, %for.body.lr.ph, %if.end, %entry
  ret void
}